target datalayout = "e-m:e-p270:32:32-p271:32:32-p272:64:64-i64:64-i128:128-f80:128-n8:16:32:64-S128"
target triple = "x86_64-pc-linux-gnu"

%struct.cli_htu32_element = type { i32, %union.anon }
%union.anon = type { i64 }
%struct.cli_matcher = type { i32, ptr, ptr, ptr, ptr, i32, i32, i32, i32, i32, %struct.cli_hash_patt, %struct.cli_hash_wild, i32, i32, i32, i32, i32, ptr, ptr, ptr, ptr, ptr, ptr, i32, i32, i8, i8, ptr, i16, i8, i32, ptr, i32, i32, i32, ptr, ptr, i32, ptr, i64, i64, ptr }
%struct.cli_hash_patt = type { [3 x %struct.cli_htu32] }
%struct.cli_htu32 = type { ptr, i64, i64, i64 }
%struct.cli_hash_wild = type { [3 x %struct.cli_sz_hash] }
%struct.cli_sz_hash = type { ptr, ptr, i32 }

; Function Attrs: nounwind uwtable
define void @hm_free(ptr noundef %0) #0 {
  %2 = alloca ptr, align 8
  %3 = alloca i32, align 4
  %4 = alloca ptr, align 8
  %5 = alloca ptr, align 8
  %6 = alloca ptr, align 8
  %7 = alloca ptr, align 8
  store ptr %0, ptr %2, align 8
  %8 = load ptr, ptr %2, align 8
  %9 = icmp ne ptr %8, null
  br i1 %9, label %11, label %10

10:                                               ; preds = %1
  br label %138

11:                                               ; preds = %1
  store i32 0, ptr %3, align 4
  br label %12

12:                                               ; preds = %83, %11
  %13 = load i32, ptr %3, align 4
  %14 = icmp ult i32 %13, 3
  br i1 %14, label %15, label %86

15:                                               ; preds = %12
  %16 = load ptr, ptr %2, align 8
  %17 = getelementptr inbounds %struct.cli_matcher, ptr %16, i32 0, i32 10
  %18 = getelementptr inbounds %struct.cli_hash_patt, ptr %17, i32 0, i32 0
  %19 = load i32, ptr %3, align 4
  %20 = zext i32 %19 to i64
  %21 = getelementptr inbounds [3 x %struct.cli_htu32], ptr %18, i64 0, i64 %20
  store ptr %21, ptr %4, align 8
  store ptr null, ptr %5, align 8
  %22 = load ptr, ptr %2, align 8
  %23 = getelementptr inbounds %struct.cli_matcher, ptr %22, i32 0, i32 10
  %24 = getelementptr inbounds %struct.cli_hash_patt, ptr %23, i32 0, i32 0
  %25 = load i32, ptr %3, align 4
  %26 = zext i32 %25 to i64
  %27 = getelementptr inbounds [3 x %struct.cli_htu32], ptr %24, i64 0, i64 %26
  %28 = getelementptr inbounds %struct.cli_htu32, ptr %27, i32 0, i32 1
  %29 = load i64, ptr %28, align 8
  %30 = icmp ne i64 %29, 0
  br i1 %30, label %32, label %31

31:                                               ; preds = %15
  br label %83

32:                                               ; preds = %15
  br label %33

33:                                               ; preds = %67, %32
  %34 = load ptr, ptr %4, align 8
  %35 = load ptr, ptr %5, align 8
  %36 = call ptr @cli_htu32_next(ptr noundef %34, ptr noundef %35)
  store ptr %36, ptr %5, align 8
  %37 = icmp ne ptr %36, null
  br i1 %37, label %38, label %78

38:                                               ; preds = %33
  %39 = load ptr, ptr %5, align 8
  %40 = getelementptr inbounds %struct.cli_htu32_element, ptr %39, i32 0, i32 1
  %41 = load ptr, ptr %40, align 8
  store ptr %41, ptr %6, align 8
  %42 = load ptr, ptr %2, align 8
  %43 = getelementptr inbounds %struct.cli_matcher, ptr %42, i32 0, i32 41
  %44 = load ptr, ptr %43, align 8
  %45 = load ptr, ptr %6, align 8
  %46 = getelementptr inbounds %struct.cli_sz_hash, ptr %45, i32 0, i32 0
  %47 = load ptr, ptr %46, align 8
  call void @mpool_free(ptr noundef %44, ptr noundef %47)
  br label %48

48:                                               ; preds = %53, %38
  %49 = load ptr, ptr %6, align 8
  %50 = getelementptr inbounds %struct.cli_sz_hash, ptr %49, i32 0, i32 2
  %51 = load i32, ptr %50, align 8
  %52 = icmp ne i32 %51, 0
  br i1 %52, label %53, label %67

53:                                               ; preds = %48
  %54 = load ptr, ptr %2, align 8
  %55 = getelementptr inbounds %struct.cli_matcher, ptr %54, i32 0, i32 41
  %56 = load ptr, ptr %55, align 8
  %57 = load ptr, ptr %6, align 8
  %58 = getelementptr inbounds %struct.cli_sz_hash, ptr %57, i32 0, i32 1
  %59 = load ptr, ptr %58, align 8
  %60 = load ptr, ptr %6, align 8
  %61 = getelementptr inbounds %struct.cli_sz_hash, ptr %60, i32 0, i32 2
  %62 = load i32, ptr %61, align 8
  %63 = add i32 %62, -1
  store i32 %63, ptr %61, align 8
  %64 = zext i32 %63 to i64
  %65 = getelementptr inbounds ptr, ptr %59, i64 %64
  %66 = load ptr, ptr %65, align 8
  call void @mpool_free(ptr noundef %56, ptr noundef %66)
  br label %48

67:                                               ; preds = %48
  %68 = load ptr, ptr %2, align 8
  %69 = getelementptr inbounds %struct.cli_matcher, ptr %68, i32 0, i32 41
  %70 = load ptr, ptr %69, align 8
  %71 = load ptr, ptr %6, align 8
  %72 = getelementptr inbounds %struct.cli_sz_hash, ptr %71, i32 0, i32 1
  %73 = load ptr, ptr %72, align 8
  call void @mpool_free(ptr noundef %70, ptr noundef %73)
  %74 = load ptr, ptr %2, align 8
  %75 = getelementptr inbounds %struct.cli_matcher, ptr %74, i32 0, i32 41
  %76 = load ptr, ptr %75, align 8
  %77 = load ptr, ptr %6, align 8
  call void @mpool_free(ptr noundef %76, ptr noundef %77)
  br label %33

78:                                               ; preds = %33
  %79 = load ptr, ptr %4, align 8
  %80 = load ptr, ptr %2, align 8
  %81 = getelementptr inbounds %struct.cli_matcher, ptr %80, i32 0, i32 41
  %82 = load ptr, ptr %81, align 8
  call void @cli_htu32_free(ptr noundef %79, ptr noundef %82)
  br label %83

83:                                               ; preds = %78, %31
  %84 = load i32, ptr %3, align 4
  %85 = add i32 %84, 1
  store i32 %85, ptr %3, align 4
  br label %12

86:                                               ; preds = %12
  store i32 0, ptr %3, align 4
  br label %87

87:                                               ; preds = %135, %86
  %88 = load i32, ptr %3, align 4
  %89 = icmp ult i32 %88, 3
  br i1 %89, label %90, label %138

90:                                               ; preds = %87
  %91 = load ptr, ptr %2, align 8
  %92 = getelementptr inbounds %struct.cli_matcher, ptr %91, i32 0, i32 11
  %93 = getelementptr inbounds %struct.cli_hash_wild, ptr %92, i32 0, i32 0
  %94 = load i32, ptr %3, align 4
  %95 = zext i32 %94 to i64
  %96 = getelementptr inbounds [3 x %struct.cli_sz_hash], ptr %93, i64 0, i64 %95
  store ptr %96, ptr %7, align 8
  %97 = load ptr, ptr %7, align 8
  %98 = getelementptr inbounds %struct.cli_sz_hash, ptr %97, i32 0, i32 2
  %99 = load i32, ptr %98, align 8
  %100 = icmp ne i32 %99, 0
  br i1 %100, label %102, label %101

101:                                              ; preds = %90
  br label %135

102:                                              ; preds = %90
  %103 = load ptr, ptr %2, align 8
  %104 = getelementptr inbounds %struct.cli_matcher, ptr %103, i32 0, i32 41
  %105 = load ptr, ptr %104, align 8
  %106 = load ptr, ptr %7, align 8
  %107 = getelementptr inbounds %struct.cli_sz_hash, ptr %106, i32 0, i32 0
  %108 = load ptr, ptr %107, align 8
  call void @mpool_free(ptr noundef %105, ptr noundef %108)
  br label %109

109:                                              ; preds = %114, %102
  %110 = load ptr, ptr %7, align 8
  %111 = getelementptr inbounds %struct.cli_sz_hash, ptr %110, i32 0, i32 2
  %112 = load i32, ptr %111, align 8
  %113 = icmp ne i32 %112, 0
  br i1 %113, label %114, label %128

114:                                              ; preds = %109
  %115 = load ptr, ptr %2, align 8
  %116 = getelementptr inbounds %struct.cli_matcher, ptr %115, i32 0, i32 41
  %117 = load ptr, ptr %116, align 8
  %118 = load ptr, ptr %7, align 8
  %119 = getelementptr inbounds %struct.cli_sz_hash, ptr %118, i32 0, i32 1
  %120 = load ptr, ptr %119, align 8
  %121 = load ptr, ptr %7, align 8
  %122 = getelementptr inbounds %struct.cli_sz_hash, ptr %121, i32 0, i32 2
  %123 = load i32, ptr %122, align 8
  %124 = add i32 %123, -1
  store i32 %124, ptr %122, align 8
  %125 = zext i32 %124 to i64
  %126 = getelementptr inbounds ptr, ptr %120, i64 %125
  %127 = load ptr, ptr %126, align 8
  call void @mpool_free(ptr noundef %117, ptr noundef %127)
  br label %109

128:                                              ; preds = %109
  %129 = load ptr, ptr %2, align 8
  %130 = getelementptr inbounds %struct.cli_matcher, ptr %129, i32 0, i32 41
  %131 = load ptr, ptr %130, align 8
  %132 = load ptr, ptr %7, align 8
  %133 = getelementptr inbounds %struct.cli_sz_hash, ptr %132, i32 0, i32 1
  %134 = load ptr, ptr %133, align 8
  call void @mpool_free(ptr noundef %131, ptr noundef %134)
  br label %135

135:                                              ; preds = %128, %101
  %136 = load i32, ptr %3, align 4
  %137 = add i32 %136, 1
  store i32 %137, ptr %3, align 4
  br label %87

138:                                              ; preds = %87, %10
  ret void
}