; Function Attrs: nounwind uwtable
define void @hm_free(ptr noundef %0) local_unnamed_addr #0 {
  %.not = icmp eq ptr %0, null
  br i1 %.not, label %.loopexit, label %.preheader45

.preheader45:                                     ; preds = %1
  %2 = getelementptr inbounds i8, ptr %0, i64 64
  %3 = getelementptr inbounds i8, ptr %0, i64 408
  br label %5

.preheader:                                       ; preds = %33
  %4 = getelementptr inbounds i8, ptr %0, i64 160
  br label %34

5:                                                ; preds = %.preheader45, %33
  %indvars.iv = phi i64 [ 0, %.preheader45 ], [ %indvars.iv.next, %33 ]
  %6 = getelementptr inbounds [3 x %struct.cli_htu32], ptr %2, i64 0, i64 %indvars.iv
  %7 = getelementptr inbounds i8, ptr %6, i64 8
  %8 = load i64, ptr %7, align 8
  %.not41 = icmp eq i64 %8, 0
  br i1 %.not41, label %33, label %.preheader44

.preheader44:                                     ; preds = %5
  %9 = tail call ptr @cli_htu32_next(ptr noundef nonnull %6, ptr noundef null) #7
  %.not4247 = icmp eq ptr %9, null
  br i1 %.not4247, label %._crit_edge49, label %.lr.ph48

.lr.ph48:                                         ; preds = %.preheader44, %._crit_edge
  %10 = phi ptr [ %31, %._crit_edge ], [ %9, %.preheader44 ]
  %11 = getelementptr inbounds i8, ptr %10, i64 8
  %12 = load ptr, ptr %11, align 8
  %13 = load ptr, ptr %3, align 8
  %14 = load ptr, ptr %12, align 8
  tail call void @mpool_free(ptr noundef %13, ptr noundef %14) #7
  %15 = getelementptr inbounds i8, ptr %12, i64 16
  %16 = load i32, ptr %15, align 8
  %.not4346 = icmp eq i32 %16, 0
  br i1 %.not4346, label %._crit_edge, label %.lr.ph

.lr.ph:                                           ; preds = %.lr.ph48
  %17 = getelementptr inbounds i8, ptr %12, i64 8
  br label %18

18:                                               ; preds = %.lr.ph, %18
  %19 = phi i32 [ %16, %.lr.ph ], [ %26, %18 ]
  %20 = load ptr, ptr %3, align 8
  %21 = load ptr, ptr %17, align 8
  %22 = add i32 %19, -1
  store i32 %22, ptr %15, align 8
  %23 = zext i32 %22 to i64
  %24 = getelementptr inbounds ptr, ptr %21, i64 %23
  %25 = load ptr, ptr %24, align 8
  tail call void @mpool_free(ptr noundef %20, ptr noundef %25) #7
  %26 = load i32, ptr %15, align 8
  %.not43 = icmp eq i32 %26, 0
  br i1 %.not43, label %._crit_edge, label %18

._crit_edge:                                      ; preds = %18, %.lr.ph48
  %27 = load ptr, ptr %3, align 8
  %28 = getelementptr inbounds i8, ptr %12, i64 8
  %29 = load ptr, ptr %28, align 8
  tail call void @mpool_free(ptr noundef %27, ptr noundef %29) #7
  %30 = load ptr, ptr %3, align 8
  tail call void @mpool_free(ptr noundef %30, ptr noundef nonnull %12) #7
  %31 = tail call ptr @cli_htu32_next(ptr noundef nonnull %6, ptr noundef nonnull %10) #7
  %.not42 = icmp eq ptr %31, null
  br i1 %.not42, label %._crit_edge49, label %.lr.ph48

._crit_edge49:                                    ; preds = %._crit_edge, %.preheader44
  %32 = load ptr, ptr %3, align 8
  tail call void @cli_htu32_free(ptr noundef nonnull %6, ptr noundef %32) #7
  br label %33

33:                                               ; preds = %5, %._crit_edge49
  %indvars.iv.next = add nuw nsw i64 %indvars.iv, 1
  %exitcond.not = icmp eq i64 %indvars.iv.next, 3
  br i1 %exitcond.not, label %.preheader, label %5

34:                                               ; preds = %.preheader, %55
  %indvars.iv57 = phi i64 [ 0, %.preheader ], [ %indvars.iv.next58, %55 ]
  %35 = getelementptr inbounds [3 x %struct.cli_sz_hash], ptr %4, i64 0, i64 %indvars.iv57
  %36 = getelementptr inbounds i8, ptr %35, i64 16
  %37 = load i32, ptr %36, align 8
  %.not39 = icmp eq i32 %37, 0
  br i1 %.not39, label %55, label %38

38:                                               ; preds = %34
  %39 = load ptr, ptr %3, align 8
  %40 = load ptr, ptr %35, align 8
  tail call void @mpool_free(ptr noundef %39, ptr noundef %40) #7
  %41 = load i32, ptr %36, align 8
  %.not4051 = icmp eq i32 %41, 0
  br i1 %.not4051, label %._crit_edge54, label %.lr.ph53

.lr.ph53:                                         ; preds = %38
  %42 = getelementptr inbounds i8, ptr %35, i64 8
  br label %43

43:                                               ; preds = %.lr.ph53, %43
  %44 = phi i32 [ %41, %.lr.ph53 ], [ %51, %43 ]
  %45 = load ptr, ptr %3, align 8
  %46 = load ptr, ptr %42, align 8
  %47 = add i32 %44, -1
  store i32 %47, ptr %36, align 8
  %48 = zext i32 %47 to i64
  %49 = getelementptr inbounds ptr, ptr %46, i64 %48
  %50 = load ptr, ptr %49, align 8
  tail call void @mpool_free(ptr noundef %45, ptr noundef %50) #7
  %51 = load i32, ptr %36, align 8
  %.not40 = icmp eq i32 %51, 0
  br i1 %.not40, label %._crit_edge54, label %43

._crit_edge54:                                    ; preds = %43, %38
  %52 = load ptr, ptr %3, align 8
  %53 = getelementptr inbounds i8, ptr %35, i64 8
  %54 = load ptr, ptr %53, align 8
  tail call void @mpool_free(ptr noundef %52, ptr noundef %54) #7
  br label %55

55:                                               ; preds = %34, %._crit_edge54
  %indvars.iv.next58 = add nuw nsw i64 %indvars.iv57, 1
  %exitcond60.not = icmp eq i64 %indvars.iv.next58, 3
  br i1 %exitcond60.not, label %.loopexit, label %34

.loopexit:                                        ; preds = %55, %1
  ret void
}